; Function Attrs: mustprogress nofree norecurse nosync nounwind willreturn memory(read, inaccessiblemem: none) uwtable
define hidden noundef zeroext i1 @_ZNK3nla4core9is_nl_varEj(ptr noundef nonnull readonly align 8 captures(none) dereferenceable(4736) %0, i32 noundef %1) local_unnamed_addr #9 align 2 {
  %3 = getelementptr inbounds nuw i8, ptr %0, i64 4552
  %4 = load ptr, ptr %3, align 8, !tbaa !188
  %5 = icmp eq ptr %4, null
  br i1 %5, label %_ZNK3nla4core12is_monic_varEj.exit.thread, label %_ZNK6vectorIjLb0EjE3getEjRKj.exit.i.i

_ZNK6vectorIjLb0EjE3getEjRKj.exit.i.i:            ; preds = %2
  %6 = getelementptr inbounds i8, ptr %4, i64 -4
  %7 = load i32, ptr %6, align 4, !tbaa !249
  %.not.i.i.i = icmp ult i32 %1, %7
  br i1 %.not.i.i.i, label %_ZNK3nla4core12is_monic_varEj.exit, label %_ZNK3nla4core12is_monic_varEj.exit.thread

_ZNK3nla4core12is_monic_varEj.exit:               ; preds = %_ZNK6vectorIjLb0EjE3getEjRKj.exit.i.i
  %8 = zext i32 %1 to i64
  %9 = getelementptr inbounds nuw i32, ptr %4, i64 %8
  %.then.val.i.i = load i32, ptr %9, align 4, !tbaa !249
  %.not = icmp eq i32 %.then.val.i.i, -1
  br i1 %.not, label %_ZNK3nla4core12is_monic_varEj.exit.thread, label %_ZNK3nla7emonics16is_used_in_monicEj.exit

_ZNK3nla4core12is_monic_varEj.exit.thread:        ; preds = %2, %_ZNK6vectorIjLb0EjE3getEjRKj.exit.i.i, %_ZNK3nla4core12is_monic_varEj.exit
  %10 = getelementptr inbounds nuw i8, ptr %0, i64 4568
  %11 = load ptr, ptr %10, align 8, !tbaa !223
  %12 = icmp eq ptr %11, null
  br i1 %12, label %_ZNK3nla7emonics16is_used_in_monicEj.exit, label %_ZNK6vectorIN3nla7emonics9head_tailELb0EjE4sizeEv.exit.i

_ZNK6vectorIN3nla7emonics9head_tailELb0EjE4sizeEv.exit.i: ; preds = %_ZNK3nla4core12is_monic_varEj.exit.thread
  %13 = getelementptr inbounds i8, ptr %11, i64 -4
  %14 = load i32, ptr %13, align 4, !tbaa !249
  %15 = icmp ult i32 %1, %14
  br i1 %15, label %16, label %_ZNK3nla7emonics16is_used_in_monicEj.exit

16:                                               ; preds = %_ZNK6vectorIN3nla7emonics9head_tailELb0EjE4sizeEv.exit.i
  %17 = zext i32 %1 to i64
  %18 = getelementptr inbounds nuw %"struct.nla::emonics::head_tail", ptr %11, i64 %17
  %19 = load ptr, ptr %18, align 8, !tbaa !650
  %20 = icmp ne ptr %19, null
  br label %_ZNK3nla7emonics16is_used_in_monicEj.exit

_ZNK3nla7emonics16is_used_in_monicEj.exit:        ; preds = %16, %_ZNK6vectorIN3nla7emonics9head_tailELb0EjE4sizeEv.exit.i, %_ZNK3nla4core12is_monic_varEj.exit.thread, %_ZNK3nla4core12is_monic_varEj.exit
  %21 = phi i1 [ true, %_ZNK3nla4core12is_monic_varEj.exit ], [ false, %_ZNK6vectorIN3nla7emonics9head_tailELb0EjE4sizeEv.exit.i ], [ %20, %16 ], [ false, %_ZNK3nla4core12is_monic_varEj.exit.thread ]
  ret i1 %21
}